ccopy_reg
_reconstructor
p0
(csklearn.grid_search
GridSearchCV
p1
c__builtin__
object
p2
Ntp3
Rp4
(dp5
S'scoring'
p6
NsS'n_jobs'
p7
I1
sS'verbose'
p8
I0
sS'fit_params'
p9
(dp10
sS'refit'
p11
I01
sS'iid'
p12
I01
sS'estimator'
p13
g0
(csklearn.tree.tree
DecisionTreeClassifier
p14
g2
Ntp15
Rp16
(dp17
S'presort'
p18
I00
sS'splitter'
p19
S'best'
p20
sS'tree_'
p21
NsS'n_features_'
p22
NsS'n_outputs_'
p23
NsS'n_classes_'
p24
NsS'min_impurity_split'
p25
F1e-07
sS'classes_'
p26
NsS'max_features_'
p27
NsS'min_samples_leaf'
p28
I1
sS'min_samples_split'
p29
I2
sS'random_state'
p30
NsS'criterion'
p31
S'gini'
p32
sS'min_weight_fraction_leaf'
p33
F0.0
sS'max_leaf_nodes'
p34
NsS'max_features'
p35
NsS'_sklearn_version'
p36
S'0.18.1'
p37
sS'max_depth'
p38
NsS'class_weight'
p39
Nsbsg36
g37
sS'error_score'
p40
S'raise'
p41
sS'pre_dispatch'
p42
S'2*n_jobs'
p43
sS'param_grid'
p44
(dp45
g29
(lp46
I3
aI4
aI5
asg19
(g20
S'random'
p47
tp48
sg30
(lp49
I0
asg31
(g32
S'entropy'
p50
tp51
ssS'cv'
p52
Nsb.